target datalayout = "e-m:e-p270:32:32-p271:32:32-p272:64:64-i64:64-i128:128-f80:128-n8:16:32:64-S128"
target triple = "x86_64-pc-linux-gnu"

%struct.epan_dissect = type { ptr, ptr, ptr, %struct._packet_info }
%struct._packet_info = type { ptr, ptr, i32, i32, %struct.nstime_t, %struct.nstime_t, %struct.nstime_t, i8, ptr, ptr, ptr, ptr, %struct._address, %struct._address, %struct._address, %struct._address, %struct._address, %struct._address, i32, ptr, i8, [3 x i8], %struct.anon, i32, i32, i32, i32, ptr, i8, ptr, ptr, i16, i16, i32, i32, i16, i32, i32, ptr, ptr, ptr, i8, i8, i16, i16, i16, i32, i16, i16, ptr, ptr, ptr, ptr, ptr, i32, i32 }
%struct.nstime_t = type { i64, i32 }
%struct._address = type { i32, i32, ptr, ptr }
%struct.anon = type { i8, [3 x i8] }
%struct.field_info = type { ptr, i32, i32, i32, i32, i32, i32, ptr, ptr, ptr, i32, i32 }
%struct._item_label_t = type { [240 x i8], i64, i64 }
%struct._header_field_info = type { ptr, ptr, i32, i32, ptr, i64, ptr, i32, i32, i32, i32, ptr }

@proto_data = internal global i32 0, align 4
@hf_text_only = external global i32, align 4
@.str.55 = private unnamed_addr constant [2 x i8] c"1\00", align 1
@.str.56 = private unnamed_addr constant [7 x i8] c"<none>\00", align 1
@.str.57 = private unnamed_addr constant [10 x i8] c"<MISSING>\00", align 1

; Function Attrs: null_pointer_is_valid sspstrong uwtable
define ptr @get_node_field_value(ptr noundef %0, ptr noundef %1) #0 {
  %3 = alloca ptr, align 8
  %4 = alloca ptr, align 8
  %5 = alloca ptr, align 8
  %6 = alloca ptr, align 8
  %7 = alloca i32, align 4
  %8 = alloca ptr, align 8
  %9 = alloca ptr, align 8
  %10 = alloca ptr, align 8
  store ptr %0, ptr %4, align 8
  store ptr %1, ptr %5, align 8
  %11 = load ptr, ptr %4, align 8
  %12 = getelementptr inbounds nuw %struct.field_info, ptr %11, i32 0, i32 0
  %13 = load ptr, ptr %12, align 8
  %14 = getelementptr inbounds nuw %struct._header_field_info, ptr %13, i32 0, i32 7
  %15 = load i32, ptr %14, align 8
  %16 = load i32, ptr @hf_text_only, align 4
  %17 = icmp eq i32 %15, %16
  br i1 %17, label %18, label %37

18:                                               ; preds = %2
  %19 = load ptr, ptr %4, align 8
  %20 = getelementptr inbounds nuw %struct.field_info, ptr %19, i32 0, i32 7
  %21 = load ptr, ptr %20, align 8
  %22 = icmp ne ptr %21, null
  br i1 %22, label %23, label %30

23:                                               ; preds = %18
  %24 = load ptr, ptr %4, align 8
  %25 = getelementptr inbounds nuw %struct.field_info, ptr %24, i32 0, i32 7
  %26 = load ptr, ptr %25, align 8
  %27 = getelementptr inbounds nuw %struct._item_label_t, ptr %26, i32 0, i32 0
  %28 = getelementptr inbounds [240 x i8], ptr %27, i64 0, i64 0
  %29 = call noalias ptr @g_strdup(ptr noundef %28)
  store ptr %29, ptr %3, align 8
  br label %184

30:                                               ; preds = %18
  %31 = load ptr, ptr %5, align 8
  %32 = getelementptr inbounds nuw %struct.epan_dissect, ptr %31, i32 0, i32 3
  %33 = getelementptr inbounds nuw %struct._packet_info, ptr %32, i32 0, i32 11
  %34 = load ptr, ptr %33, align 8
  %35 = load ptr, ptr %4, align 8
  %36 = call ptr @get_field_hex_value(ptr noundef %34, ptr noundef %35)
  store ptr %36, ptr %3, align 8
  br label %184

37:                                               ; preds = %2
  %38 = load ptr, ptr %4, align 8
  %39 = getelementptr inbounds nuw %struct.field_info, ptr %38, i32 0, i32 0
  %40 = load ptr, ptr %39, align 8
  %41 = getelementptr inbounds nuw %struct._header_field_info, ptr %40, i32 0, i32 7
  %42 = load i32, ptr %41, align 8
  %43 = load i32, ptr @proto_data, align 4
  %44 = icmp eq i32 %42, %43
  br i1 %44, label %45, label %52

45:                                               ; preds = %37
  %46 = load ptr, ptr %5, align 8
  %47 = getelementptr inbounds nuw %struct.epan_dissect, ptr %46, i32 0, i32 3
  %48 = getelementptr inbounds nuw %struct._packet_info, ptr %47, i32 0, i32 11
  %49 = load ptr, ptr %48, align 8
  %50 = load ptr, ptr %4, align 8
  %51 = call ptr @get_field_hex_value(ptr noundef %49, ptr noundef %50)
  store ptr %51, ptr %3, align 8
  br label %184

52:                                               ; preds = %37
  call void @llvm.lifetime.start.p0(i64 8, ptr %6) #15
  %53 = load ptr, ptr %4, align 8
  %54 = getelementptr inbounds nuw %struct.field_info, ptr %53, i32 0, i32 0
  %55 = load ptr, ptr %54, align 8
  %56 = getelementptr inbounds nuw %struct._header_field_info, ptr %55, i32 0, i32 2
  %57 = load i32, ptr %56, align 8
  switch i32 %57, label %159 [
    i32 1, label %58
    i32 0, label %77
    i32 31, label %79
    i32 30, label %79
  ]

58:                                               ; preds = %52
  %59 = load ptr, ptr %4, align 8
  %60 = getelementptr inbounds nuw %struct.field_info, ptr %59, i32 0, i32 7
  %61 = load ptr, ptr %60, align 8
  %62 = icmp ne ptr %61, null
  br i1 %62, label %63, label %70

63:                                               ; preds = %58
  %64 = load ptr, ptr %4, align 8
  %65 = getelementptr inbounds nuw %struct.field_info, ptr %64, i32 0, i32 7
  %66 = load ptr, ptr %65, align 8
  %67 = getelementptr inbounds nuw %struct._item_label_t, ptr %66, i32 0, i32 0
  %68 = getelementptr inbounds [240 x i8], ptr %67, i64 0, i64 0
  %69 = call noalias ptr @g_strdup(ptr noundef %68)
  store ptr %69, ptr %3, align 8
  store i32 1, ptr %7, align 4
  br label %183

70:                                               ; preds = %58
  %71 = load ptr, ptr %4, align 8
  %72 = getelementptr inbounds nuw %struct.field_info, ptr %71, i32 0, i32 0
  %73 = load ptr, ptr %72, align 8
  %74 = getelementptr inbounds nuw %struct._header_field_info, ptr %73, i32 0, i32 1
  %75 = load ptr, ptr %74, align 8
  %76 = call noalias ptr @g_strdup(ptr noundef %75)
  store ptr %76, ptr %3, align 8
  store i32 1, ptr %7, align 4
  br label %183

77:                                               ; preds = %52
  %78 = call noalias ptr @g_strdup(ptr noundef @.str.55)
  store ptr %78, ptr %3, align 8
  store i32 1, ptr %7, align 4
  br label %183

79:                                               ; preds = %52, %52
  call void @llvm.lifetime.start.p0(i64 8, ptr %8) #15
  call void @llvm.lifetime.start.p0(i64 8, ptr %9) #15
  %80 = load ptr, ptr %4, align 8
  %81 = getelementptr inbounds nuw %struct.field_info, ptr %80, i32 0, i32 9
  %82 = load ptr, ptr %81, align 8
  %83 = call ptr @fvalue_get_bytes_data(ptr noundef %82)
  store ptr %83, ptr %9, align 8
  %84 = load ptr, ptr %9, align 8
  %85 = icmp ne ptr %84, null
  br i1 %85, label %86, label %144

86:                                               ; preds = %79
  %87 = load ptr, ptr %4, align 8
  %88 = getelementptr inbounds nuw %struct.field_info, ptr %87, i32 0, i32 9
  %89 = load ptr, ptr %88, align 8
  %90 = call i64 @fvalue_length2(ptr noundef %89)
  %91 = mul i64 3, %90
  %92 = call noalias ptr @wmem_alloc(ptr noundef null, i64 noundef %91) #20
  store ptr %92, ptr %6, align 8
  %93 = load ptr, ptr %4, align 8
  %94 = getelementptr inbounds nuw %struct.field_info, ptr %93, i32 0, i32 0
  %95 = load ptr, ptr %94, align 8
  %96 = getelementptr inbounds nuw %struct._header_field_info, ptr %95, i32 0, i32 3
  %97 = load i32, ptr %96, align 4
  switch i32 %97, label %131 [
    i32 8, label %98
    i32 9, label %106
    i32 10, label %114
    i32 11, label %122
    i32 0, label %130
  ]

98:                                               ; preds = %86
  %99 = load ptr, ptr %6, align 8
  %100 = load ptr, ptr %9, align 8
  %101 = load ptr, ptr %4, align 8
  %102 = getelementptr inbounds nuw %struct.field_info, ptr %101, i32 0, i32 9
  %103 = load ptr, ptr %102, align 8
  %104 = call i64 @fvalue_length2(ptr noundef %103)
  %105 = call ptr @bytes_to_hexstr_punct(ptr noundef %99, ptr noundef %100, i64 noundef %104, i8 noundef signext 46)
  store ptr %105, ptr %8, align 8
  br label %139

106:                                              ; preds = %86
  %107 = load ptr, ptr %6, align 8
  %108 = load ptr, ptr %9, align 8
  %109 = load ptr, ptr %4, align 8
  %110 = getelementptr inbounds nuw %struct.field_info, ptr %109, i32 0, i32 9
  %111 = load ptr, ptr %110, align 8
  %112 = call i64 @fvalue_length2(ptr noundef %111)
  %113 = call ptr @bytes_to_hexstr_punct(ptr noundef %107, ptr noundef %108, i64 noundef %112, i8 noundef signext 45)
  store ptr %113, ptr %8, align 8
  br label %139

114:                                              ; preds = %86
  %115 = load ptr, ptr %6, align 8
  %116 = load ptr, ptr %9, align 8
  %117 = load ptr, ptr %4, align 8
  %118 = getelementptr inbounds nuw %struct.field_info, ptr %117, i32 0, i32 9
  %119 = load ptr, ptr %118, align 8
  %120 = call i64 @fvalue_length2(ptr noundef %119)
  %121 = call ptr @bytes_to_hexstr_punct(ptr noundef %115, ptr noundef %116, i64 noundef %120, i8 noundef signext 58)
  store ptr %121, ptr %8, align 8
  br label %139

122:                                              ; preds = %86
  %123 = load ptr, ptr %6, align 8
  %124 = load ptr, ptr %9, align 8
  %125 = load ptr, ptr %4, align 8
  %126 = getelementptr inbounds nuw %struct.field_info, ptr %125, i32 0, i32 9
  %127 = load ptr, ptr %126, align 8
  %128 = call i64 @fvalue_length2(ptr noundef %127)
  %129 = call ptr @bytes_to_hexstr_punct(ptr noundef %123, ptr noundef %124, i64 noundef %128, i8 noundef signext 32)
  store ptr %129, ptr %8, align 8
  br label %139

130:                                              ; preds = %86
  br label %131

131:                                              ; preds = %86, %130
  %132 = load ptr, ptr %6, align 8
  %133 = load ptr, ptr %9, align 8
  %134 = load ptr, ptr %4, align 8
  %135 = getelementptr inbounds nuw %struct.field_info, ptr %134, i32 0, i32 9
  %136 = load ptr, ptr %135, align 8
  %137 = call i64 @fvalue_length2(ptr noundef %136)
  %138 = call ptr @bytes_to_hexstr(ptr noundef %132, ptr noundef %133, i64 noundef %137)
  store ptr %138, ptr %8, align 8
  br label %139

139:                                              ; preds = %131, %122, %114, %106, %98
  %140 = load ptr, ptr %8, align 8
  store i8 0, ptr %140, align 1
  %141 = load ptr, ptr %6, align 8
  %142 = call noalias ptr @g_strdup(ptr noundef %141)
  store ptr %142, ptr %8, align 8
  %143 = load ptr, ptr %6, align 8
  call void @wmem_free(ptr noundef null, ptr noundef %143)
  br label %157

144:                                              ; preds = %79
  %145 = load ptr, ptr %4, align 8
  %146 = getelementptr inbounds nuw %struct.field_info, ptr %145, i32 0, i32 0
  %147 = load ptr, ptr %146, align 8
  %148 = getelementptr inbounds nuw %struct._header_field_info, ptr %147, i32 0, i32 3
  %149 = load i32, ptr %148, align 4
  %150 = and i32 %149, 2048
  %151 = icmp ne i32 %150, 0
  br i1 %151, label %152, label %154

152:                                              ; preds = %144
  %153 = call noalias ptr @g_strdup(ptr noundef @.str.56)
  store ptr %153, ptr %8, align 8
  br label %156

154:                                              ; preds = %144
  %155 = call noalias ptr @g_strdup(ptr noundef @.str.57)
  store ptr %155, ptr %8, align 8
  br label %156

156:                                              ; preds = %154, %152
  br label %157

157:                                              ; preds = %156, %139
  %158 = load ptr, ptr %8, align 8
  store ptr %158, ptr %3, align 8
  store i32 1, ptr %7, align 4
  call void @llvm.lifetime.end.p0(i64 8, ptr %9) #15
  call void @llvm.lifetime.end.p0(i64 8, ptr %8) #15
  br label %183

159:                                              ; preds = %52
  %160 = load ptr, ptr %4, align 8
  %161 = getelementptr inbounds nuw %struct.field_info, ptr %160, i32 0, i32 9
  %162 = load ptr, ptr %161, align 8
  %163 = load ptr, ptr %4, align 8
  %164 = getelementptr inbounds nuw %struct.field_info, ptr %163, i32 0, i32 0
  %165 = load ptr, ptr %164, align 8
  %166 = getelementptr inbounds nuw %struct._header_field_info, ptr %165, i32 0, i32 3
  %167 = load i32, ptr %166, align 4
  %168 = call ptr @fvalue_to_string_repr(ptr noundef null, ptr noundef %162, i32 noundef 0, i32 noundef %167)
  store ptr %168, ptr %6, align 8
  %169 = load ptr, ptr %6, align 8
  %170 = icmp ne ptr %169, null
  br i1 %170, label %171, label %176

171:                                              ; preds = %159
  call void @llvm.lifetime.start.p0(i64 8, ptr %10) #15
  %172 = load ptr, ptr %6, align 8
  %173 = call noalias ptr @g_strdup(ptr noundef %172)
  store ptr %173, ptr %10, align 8
  %174 = load ptr, ptr %6, align 8
  call void @wmem_free(ptr noundef null, ptr noundef %174)
  %175 = load ptr, ptr %10, align 8
  store ptr %175, ptr %3, align 8
  store i32 1, ptr %7, align 4
  call void @llvm.lifetime.end.p0(i64 8, ptr %10) #15
  br label %183

176:                                              ; preds = %159
  %177 = load ptr, ptr %5, align 8
  %178 = getelementptr inbounds nuw %struct.epan_dissect, ptr %177, i32 0, i32 3
  %179 = getelementptr inbounds nuw %struct._packet_info, ptr %178, i32 0, i32 11
  %180 = load ptr, ptr %179, align 8
  %181 = load ptr, ptr %4, align 8
  %182 = call ptr @get_field_hex_value(ptr noundef %180, ptr noundef %181)
  store ptr %182, ptr %3, align 8
  store i32 1, ptr %7, align 4
  br label %183

183:                                              ; preds = %176, %171, %157, %77, %70, %63
  call void @llvm.lifetime.end.p0(i64 8, ptr %6) #15
  br label %184

184:                                              ; preds = %183, %45, %30, %23
  %185 = load ptr, ptr %3, align 8
  ret ptr %185
}