; Function Attrs: null_pointer_is_valid sspstrong uwtable
define ptr @get_node_field_value(ptr noundef readonly captures(none) %0, ptr noundef readonly captures(none) %1) local_unnamed_addr #0 {
  %3 = load ptr, ptr %0, align 8
  %4 = getelementptr inbounds nuw i8, ptr %3, i64 48
  %5 = load i32, ptr %4, align 8
  %6 = load i32, ptr @hf_text_only, align 4
  %7 = icmp eq i32 %5, %6
  br i1 %7, label %8, label %17

8:                                                ; preds = %2
  %9 = getelementptr inbounds nuw i8, ptr %0, i64 32
  %10 = load ptr, ptr %9, align 8
  %.not55 = icmp eq ptr %10, null
  br i1 %.not55, label %13, label %11

11:                                               ; preds = %8
  %12 = tail call noalias ptr @g_strdup(ptr noundef nonnull %10)
  br label %85

13:                                               ; preds = %8
  %14 = getelementptr inbounds nuw i8, ptr %1, i64 128
  %15 = load ptr, ptr %14, align 8
  %16 = tail call fastcc ptr @get_field_hex_value(ptr noundef %15, ptr noundef %0)
  br label %85

17:                                               ; preds = %2
  %18 = load i32, ptr @proto_data, align 4
  %19 = icmp eq i32 %5, %18
  br i1 %19, label %20, label %24

20:                                               ; preds = %17
  %21 = getelementptr inbounds nuw i8, ptr %1, i64 128
  %22 = load ptr, ptr %21, align 8
  %23 = tail call fastcc ptr @get_field_hex_value(ptr noundef %22, ptr noundef %0)
  br label %85

24:                                               ; preds = %17
  %25 = getelementptr inbounds nuw i8, ptr %3, i64 16
  %26 = load i32, ptr %25, align 8
  switch i32 %26, label %73 [
    i32 1, label %27
    i32 0, label %36
    i32 31, label %38
    i32 30, label %38
  ]

27:                                               ; preds = %24
  %28 = getelementptr inbounds nuw i8, ptr %0, i64 32
  %29 = load ptr, ptr %28, align 8
  %.not53 = icmp eq ptr %29, null
  br i1 %.not53, label %32, label %30

30:                                               ; preds = %27
  %31 = tail call noalias ptr @g_strdup(ptr noundef nonnull %29)
  br label %85

32:                                               ; preds = %27
  %33 = getelementptr inbounds nuw i8, ptr %3, i64 8
  %34 = load ptr, ptr %33, align 8
  %35 = tail call noalias ptr @g_strdup(ptr noundef %34)
  br label %85

36:                                               ; preds = %24
  %37 = tail call noalias ptr @g_strdup(ptr noundef nonnull @.str.55)
  br label %85

38:                                               ; preds = %24, %24
  %39 = getelementptr inbounds nuw i8, ptr %0, i64 48
  %40 = load ptr, ptr %39, align 8
  %41 = tail call ptr @fvalue_get_bytes_data(ptr noundef %40)
  %.not = icmp eq ptr %41, null
  br i1 %.not, label %64, label %42

42:                                               ; preds = %38
  %43 = load ptr, ptr %39, align 8
  %44 = tail call i64 @fvalue_length2(ptr noundef %43)
  %45 = mul i64 %44, 3
  %46 = tail call noalias ptr @wmem_alloc(ptr noundef null, i64 noundef %45) #25
  %47 = load ptr, ptr %0, align 8
  %48 = getelementptr inbounds nuw i8, ptr %47, i64 20
  %49 = load i32, ptr %48, align 4
  %50 = load ptr, ptr %39, align 8
  %51 = tail call i64 @fvalue_length2(ptr noundef %50)
  switch i32 %49, label %60 [
    i32 8, label %52
    i32 9, label %54
    i32 10, label %56
    i32 11, label %58
  ]

52:                                               ; preds = %42
  %53 = tail call ptr @bytes_to_hexstr_punct(ptr noundef %46, ptr noundef nonnull %41, i64 noundef %51, i8 noundef signext 46)
  br label %62

54:                                               ; preds = %42
  %55 = tail call ptr @bytes_to_hexstr_punct(ptr noundef %46, ptr noundef nonnull %41, i64 noundef %51, i8 noundef signext 45)
  br label %62

56:                                               ; preds = %42
  %57 = tail call ptr @bytes_to_hexstr_punct(ptr noundef %46, ptr noundef nonnull %41, i64 noundef %51, i8 noundef signext 58)
  br label %62

58:                                               ; preds = %42
  %59 = tail call ptr @bytes_to_hexstr_punct(ptr noundef %46, ptr noundef nonnull %41, i64 noundef %51, i8 noundef signext 32)
  br label %62

60:                                               ; preds = %42
  %61 = tail call ptr @bytes_to_hexstr(ptr noundef %46, ptr noundef nonnull %41, i64 noundef %51)
  br label %62

62:                                               ; preds = %60, %58, %56, %54, %52
  %.045 = phi ptr [ %61, %60 ], [ %59, %58 ], [ %57, %56 ], [ %55, %54 ], [ %53, %52 ]
  store i8 0, ptr %.045, align 1
  %63 = tail call noalias ptr @g_strdup(ptr noundef %46)
  tail call void @wmem_free(ptr noundef null, ptr noundef %46)
  br label %85

64:                                               ; preds = %38
  %65 = load ptr, ptr %0, align 8
  %66 = getelementptr inbounds nuw i8, ptr %65, i64 20
  %67 = load i32, ptr %66, align 4
  %68 = and i32 %67, 2048
  %.not52 = icmp eq i32 %68, 0
  br i1 %.not52, label %71, label %69

69:                                               ; preds = %64
  %70 = tail call noalias ptr @g_strdup(ptr noundef nonnull @.str.56)
  br label %85

71:                                               ; preds = %64
  %72 = tail call noalias ptr @g_strdup(ptr noundef nonnull @.str.57)
  br label %85

73:                                               ; preds = %24
  %74 = getelementptr inbounds nuw i8, ptr %0, i64 48
  %75 = load ptr, ptr %74, align 8
  %76 = getelementptr inbounds nuw i8, ptr %3, i64 20
  %77 = load i32, ptr %76, align 4
  %78 = tail call ptr @fvalue_to_string_repr(ptr noundef null, ptr noundef %75, i32 noundef 0, i32 noundef %77)
  %.not54 = icmp eq ptr %78, null
  br i1 %.not54, label %81, label %79

79:                                               ; preds = %73
  %80 = tail call noalias ptr @g_strdup(ptr noundef nonnull %78)
  tail call void @wmem_free(ptr noundef null, ptr noundef nonnull %78)
  br label %85

81:                                               ; preds = %73
  %82 = getelementptr inbounds nuw i8, ptr %1, i64 128
  %83 = load ptr, ptr %82, align 8
  %84 = tail call fastcc ptr @get_field_hex_value(ptr noundef %83, ptr noundef %0)
  br label %85

85:                                               ; preds = %30, %32, %36, %79, %81, %69, %71, %62, %20, %13, %11
  %.0 = phi ptr [ %12, %11 ], [ %16, %13 ], [ %23, %20 ], [ %80, %79 ], [ %84, %81 ], [ %37, %36 ], [ %31, %30 ], [ %35, %32 ], [ %63, %62 ], [ %70, %69 ], [ %72, %71 ]
  ret ptr %.0
}